; Function Attrs: nofree nounwind memory(read, argmem: readwrite) uwtable
define dso_local void @sdstoupper(ptr nocapture noundef %s) local_unnamed_addr #16 {
entry:
  %arrayidx.i = getelementptr inbounds i8, ptr %s, i64 -1
  %0 = load i8, ptr %arrayidx.i, align 1
  %conv.i = zext i8 %0 to i32
  %and.i = and i32 %conv.i, 7
  switch i32 %and.i, label %for.end [
    i32 0, label %sw.bb.i
    i32 1, label %sw.bb3.i
    i32 2, label %sw.bb5.i
    i32 3, label %sw.bb9.i
    i32 4, label %sw.bb13.i
  ]

sw.bb.i:                                          ; preds = %entry
  %shr.i = lshr i32 %conv.i, 3
  %conv2.i = zext nneg i32 %shr.i to i64
  br label %sdslen.exit

sw.bb3.i:                                         ; preds = %entry
  %add.ptr.i = getelementptr inbounds i8, ptr %s, i64 -3
  %1 = load i8, ptr %add.ptr.i, align 1
  %conv4.i = zext i8 %1 to i64
  br label %sdslen.exit

sw.bb5.i:                                         ; preds = %entry
  %add.ptr6.i = getelementptr inbounds i8, ptr %s, i64 -5
  %2 = load i16, ptr %add.ptr6.i, align 1
  %conv8.i = zext i16 %2 to i64
  br label %sdslen.exit

sw.bb9.i:                                         ; preds = %entry
  %add.ptr10.i = getelementptr inbounds i8, ptr %s, i64 -9
  %3 = load i32, ptr %add.ptr10.i, align 1
  %conv12.i = zext i32 %3 to i64
  br label %sdslen.exit

sw.bb13.i:                                        ; preds = %entry
  %add.ptr14.i = getelementptr inbounds i8, ptr %s, i64 -17
  %4 = load i64, ptr %add.ptr14.i, align 1
  br label %sdslen.exit

sdslen.exit:                                      ; preds = %sw.bb.i, %sw.bb3.i, %sw.bb5.i, %sw.bb9.i, %sw.bb13.i
  %retval.0.i = phi i64 [ %4, %sw.bb13.i ], [ %conv12.i, %sw.bb9.i ], [ %conv8.i, %sw.bb5.i ], [ %conv4.i, %sw.bb3.i ], [ %conv2.i, %sw.bb.i ]
  %cmp6.not = icmp eq i64 %retval.0.i, 0
  br i1 %cmp6.not, label %for.end, label %for.body

for.body:                                         ; preds = %sdslen.exit, %for.body
  %j.07 = phi i64 [ %inc, %for.body ], [ 0, %sdslen.exit ]
  %arrayidx = getelementptr inbounds i8, ptr %s, i64 %j.07
  %5 = load i8, ptr %arrayidx, align 1
  %conv = sext i8 %5 to i32
  %call1 = tail call i32 @toupper(i32 noundef %conv) #27
  %conv2 = trunc i32 %call1 to i8
  store i8 %conv2, ptr %arrayidx, align 1
  %inc = add nuw i64 %j.07, 1
  %exitcond.not = icmp eq i64 %inc, %retval.0.i
  br i1 %exitcond.not, label %for.end, label %for.body, !llvm.loop !10

for.end:                                          ; preds = %for.body, %entry, %sdslen.exit
  ret void
}